target datalayout = "e-m:e-p270:32:32-p271:32:32-p272:64:64-i64:64-i128:128-f80:128-n8:16:32:64-S128"
target triple = "x86_64-unknown-linux-gnu"

%"class.std::__cxx11::basic_string" = type { %"struct.std::__cxx11::basic_string<char>::_Alloc_hider", i64, %union.anon }
%"struct.std::__cxx11::basic_string<char>::_Alloc_hider" = type { ptr }
%union.anon = type { i64, [8 x i8] }
%"class.Imf_3_2::(anonymous namespace)::PtrIStream" = type { %"class.Imf_3_2::IStream", ptr, ptr, ptr }
%"class.Imf_3_2::IStream" = type { ptr, %"class.std::__cxx11::basic_string" }

; Function Attrs: mustprogress nounwind uwtable
define internal noundef i64 @_ZN7Imf_3_212_GLOBAL__N_110PtrIStream5tellgEv(ptr noundef nonnull align 8 dereferenceable(64) %this) unnamed_addr #5 align 2 {
entry:
  %this.addr = alloca ptr, align 8
  store ptr %this, ptr %this.addr, align 8
  %this1 = load ptr, ptr %this.addr, align 8
  %current = getelementptr inbounds %"class.Imf_3_2::(anonymous namespace)::PtrIStream", ptr %this1, i32 0, i32 2
  %0 = load ptr, ptr %current, align 8
  %base = getelementptr inbounds %"class.Imf_3_2::(anonymous namespace)::PtrIStream", ptr %this1, i32 0, i32 1
  %1 = load ptr, ptr %base, align 8
  %sub.ptr.lhs.cast = ptrtoint ptr %0 to i64
  %sub.ptr.rhs.cast = ptrtoint ptr %1 to i64
  %sub.ptr.sub = sub i64 %sub.ptr.lhs.cast, %sub.ptr.rhs.cast
  ret i64 %sub.ptr.sub
}