; Function Attrs: mustprogress nofree norecurse nosync nounwind willreturn memory(argmem: read) uwtable
define internal noundef i64 @_ZN7Imf_3_212_GLOBAL__N_110PtrIStream5tellgEv(ptr nocapture noundef nonnull readonly align 8 dereferenceable(64) %this) unnamed_addr #14 align 2 {
entry:
  %current = getelementptr inbounds i8, ptr %this, i64 48
  %0 = load ptr, ptr %current, align 8
  %base = getelementptr inbounds i8, ptr %this, i64 40
  %1 = load ptr, ptr %base, align 8
  %sub.ptr.lhs.cast = ptrtoint ptr %0 to i64
  %sub.ptr.rhs.cast = ptrtoint ptr %1 to i64
  %sub.ptr.sub = sub i64 %sub.ptr.lhs.cast, %sub.ptr.rhs.cast
  ret i64 %sub.ptr.sub
}